target datalayout = "e-m:e-p270:32:32-p271:32:32-p272:64:64-i64:64-i128:128-f80:128-n8:16:32:64-S128"
target triple = "x86_64-pc-linux-gnu"

%struct._DlsMat = type { i32, i64, i64, i64, i64, i64, i64, ptr, i64, ptr }

; Function Attrs: nounwind uwtable
define void @SUNDlsMat_denseScale(double noundef %0, ptr noundef %1, i64 noundef %2, i64 noundef %3) #0 {
  %5 = alloca double, align 8
  %6 = alloca ptr, align 8
  %7 = alloca i64, align 8
  %8 = alloca i64, align 8
  %9 = alloca i64, align 8
  %10 = alloca i64, align 8
  %11 = alloca ptr, align 8
  store double %0, ptr %5, align 8, !tbaa !21
  store ptr %1, ptr %6, align 8, !tbaa !18
  store i64 %2, ptr %7, align 8, !tbaa !19
  store i64 %3, ptr %8, align 8, !tbaa !19
  call void @llvm.lifetime.start.p0(i64 8, ptr %9) #4
  call void @llvm.lifetime.start.p0(i64 8, ptr %10) #4
  call void @llvm.lifetime.start.p0(i64 8, ptr %11) #4
  store i64 0, ptr %10, align 8, !tbaa !19
  br label %12

12:                                               ; preds = %36, %4
  %13 = load i64, ptr %10, align 8, !tbaa !19
  %14 = load i64, ptr %8, align 8, !tbaa !19
  %15 = icmp slt i64 %13, %14
  br i1 %15, label %16, label %39

16:                                               ; preds = %12
  %17 = load ptr, ptr %6, align 8, !tbaa !18
  %18 = load i64, ptr %10, align 8, !tbaa !19
  %19 = getelementptr inbounds ptr, ptr %17, i64 %18
  %20 = load ptr, ptr %19, align 8, !tbaa !20
  store ptr %20, ptr %11, align 8, !tbaa !20
  store i64 0, ptr %9, align 8, !tbaa !19
  br label %21

21:                                               ; preds = %32, %16
  %22 = load i64, ptr %9, align 8, !tbaa !19
  %23 = load i64, ptr %7, align 8, !tbaa !19
  %24 = icmp slt i64 %22, %23
  br i1 %24, label %25, label %35

25:                                               ; preds = %21
  %26 = load double, ptr %5, align 8, !tbaa !21
  %27 = load ptr, ptr %11, align 8, !tbaa !20
  %28 = load i64, ptr %9, align 8, !tbaa !19
  %29 = getelementptr inbounds double, ptr %27, i64 %28
  %30 = load double, ptr %29, align 8, !tbaa !21
  %31 = fmul double %30, %26
  store double %31, ptr %29, align 8, !tbaa !21
  br label %32

32:                                               ; preds = %25
  %33 = load i64, ptr %9, align 8, !tbaa !19
  %34 = add nsw i64 %33, 1
  store i64 %34, ptr %9, align 8, !tbaa !19
  br label %21

35:                                               ; preds = %21
  br label %36

36:                                               ; preds = %35
  %37 = load i64, ptr %10, align 8, !tbaa !19
  %38 = add nsw i64 %37, 1
  store i64 %38, ptr %10, align 8, !tbaa !19
  br label %12

39:                                               ; preds = %12
  call void @llvm.lifetime.end.p0(i64 8, ptr %11) #4
  call void @llvm.lifetime.end.p0(i64 8, ptr %10) #4
  call void @llvm.lifetime.end.p0(i64 8, ptr %9) #4
  ret void
}

; Function Attrs: nounwind uwtable
define void @SUNDlsMat_DenseScale(double noundef %0, ptr noundef %1) #0 {
  %3 = alloca double, align 8
  %4 = alloca ptr, align 8
  store double %0, ptr %3, align 8, !tbaa !21
  store ptr %1, ptr %4, align 8, !tbaa !3
  %5 = load double, ptr %3, align 8, !tbaa !21
  %6 = load ptr, ptr %4, align 8, !tbaa !3
  %7 = getelementptr inbounds nuw %struct._DlsMat, ptr %6, i32 0, i32 9
  %8 = load ptr, ptr %7, align 8, !tbaa !10
  %9 = load ptr, ptr %4, align 8, !tbaa !3
  %10 = getelementptr inbounds nuw %struct._DlsMat, ptr %9, i32 0, i32 1
  %11 = load i64, ptr %10, align 8, !tbaa !16
  %12 = load ptr, ptr %4, align 8, !tbaa !3
  %13 = getelementptr inbounds nuw %struct._DlsMat, ptr %12, i32 0, i32 2
  %14 = load i64, ptr %13, align 8, !tbaa !17
  call void @SUNDlsMat_denseScale(double noundef %5, ptr noundef %8, i64 noundef %11, i64 noundef %14)
  ret void
}